; Function Attrs: nounwind uwtable
define ptr @l_Lean_Grind_CommRing_Expr_denoteExpr_go___rarg___lambda__6(ptr noundef %0, ptr noundef %1, ptr noundef %2, ptr noundef %3) #0 {
  %5 = getelementptr inbounds nuw i8, ptr %0, i64 8
  %6 = load ptr, ptr %5, align 8, !tbaa !11
  %7 = ptrtoint ptr %6 to i64
  %8 = and i64 %7, 1
  %.not = icmp eq i64 %8, 0
  br i1 %.not, label %9, label %lean_inc.exit16

9:                                                ; preds = %4
  %.val.i = load i32, ptr %6, align 4, !tbaa !6
  %10 = icmp sgt i32 %.val.i, 0
  br i1 %10, label %11, label %13, !prof !5

11:                                               ; preds = %9
  %12 = add nuw i32 %.val.i, 1
  store i32 %12, ptr %6, align 4, !tbaa !6
  br label %lean_inc.exit16

13:                                               ; preds = %9
  %.not.i23 = icmp eq i32 %.val.i, 0
  br i1 %.not.i23, label %lean_inc.exit16, label %14

14:                                               ; preds = %13
  tail call void @lean_inc_ref_cold(ptr noundef nonnull %6) #3
  br label %lean_inc.exit16

lean_inc.exit16:                                  ; preds = %14, %13, %11, %4
  %15 = ptrtoint ptr %0 to i64
  %16 = and i64 %15, 1
  %.not30 = icmp eq i64 %16, 0
  br i1 %.not30, label %17, label %lean_dec.exit18

17:                                               ; preds = %lean_inc.exit16
  %18 = load i32, ptr %0, align 4, !tbaa !6
  %19 = icmp sgt i32 %18, 1
  br i1 %19, label %20, label %22, !prof !5

20:                                               ; preds = %17
  %21 = add nsw i32 %18, -1
  store i32 %21, ptr %0, align 4, !tbaa !6
  br label %lean_dec.exit18

22:                                               ; preds = %17
  %.not.i = icmp eq i32 %18, 0
  br i1 %.not.i, label %lean_dec.exit18, label %23

23:                                               ; preds = %22
  tail call void @lean_dec_ref_cold(ptr noundef nonnull %0) #3
  br label %lean_dec.exit18

lean_dec.exit18:                                  ; preds = %23, %22, %20, %lean_inc.exit16
  %24 = getelementptr inbounds nuw i8, ptr %6, i64 16
  %25 = load ptr, ptr %24, align 8, !tbaa !11
  %26 = ptrtoint ptr %25 to i64
  %27 = and i64 %26, 1
  %.not31 = icmp eq i64 %27, 0
  br i1 %.not31, label %28, label %lean_inc.exit15

28:                                               ; preds = %lean_dec.exit18
  %.val.i24 = load i32, ptr %25, align 4, !tbaa !6
  %29 = icmp sgt i32 %.val.i24, 0
  br i1 %29, label %30, label %32, !prof !5

30:                                               ; preds = %28
  %31 = add nuw i32 %.val.i24, 1
  store i32 %31, ptr %25, align 4, !tbaa !6
  br label %lean_inc.exit15

32:                                               ; preds = %28
  %.not.i25 = icmp eq i32 %.val.i24, 0
  br i1 %.not.i25, label %lean_inc.exit15, label %33

33:                                               ; preds = %32
  tail call void @lean_inc_ref_cold(ptr noundef nonnull %25) #3
  br label %lean_inc.exit15

lean_inc.exit15:                                  ; preds = %33, %32, %30, %lean_dec.exit18
  br i1 %.not, label %34, label %lean_dec.exit17

34:                                               ; preds = %lean_inc.exit15
  %35 = load i32, ptr %6, align 4, !tbaa !6
  %36 = icmp sgt i32 %35, 1
  br i1 %36, label %37, label %39, !prof !5

37:                                               ; preds = %34
  %38 = add nsw i32 %35, -1
  store i32 %38, ptr %6, align 4, !tbaa !6
  br label %lean_dec.exit17

39:                                               ; preds = %34
  %.not.i19 = icmp eq i32 %35, 0
  br i1 %.not.i19, label %lean_dec.exit17, label %40

40:                                               ; preds = %39
  tail call void @lean_dec_ref_cold(ptr noundef nonnull %6) #3
  br label %lean_dec.exit17

lean_dec.exit17:                                  ; preds = %40, %39, %37, %lean_inc.exit15
  %41 = getelementptr inbounds nuw i8, ptr %1, i64 96
  %42 = load ptr, ptr %41, align 8, !tbaa !11
  %43 = ptrtoint ptr %42 to i64
  %44 = and i64 %43, 1
  %.not32 = icmp eq i64 %44, 0
  br i1 %.not32, label %45, label %lean_inc.exit

45:                                               ; preds = %lean_dec.exit17
  %.val.i27 = load i32, ptr %42, align 4, !tbaa !6
  %46 = icmp sgt i32 %.val.i27, 0
  br i1 %46, label %47, label %49, !prof !5

47:                                               ; preds = %45
  %48 = add nuw i32 %.val.i27, 1
  store i32 %48, ptr %42, align 4, !tbaa !6
  br label %lean_inc.exit

49:                                               ; preds = %45
  %.not.i28 = icmp eq i32 %.val.i27, 0
  br i1 %.not.i28, label %lean_inc.exit, label %50

50:                                               ; preds = %49
  tail call void @lean_inc_ref_cold(ptr noundef nonnull %42) #3
  br label %lean_inc.exit

lean_inc.exit:                                    ; preds = %50, %49, %47, %lean_dec.exit17
  %51 = ptrtoint ptr %1 to i64
  %52 = and i64 %51, 1
  %.not33 = icmp eq i64 %52, 0
  br i1 %.not33, label %53, label %lean_dec.exit

53:                                               ; preds = %lean_inc.exit
  %54 = load i32, ptr %1, align 4, !tbaa !6
  %55 = icmp sgt i32 %54, 1
  br i1 %55, label %56, label %58, !prof !5

56:                                               ; preds = %53
  %57 = add nsw i32 %54, -1
  store i32 %57, ptr %1, align 4, !tbaa !6
  br label %lean_dec.exit

58:                                               ; preds = %53
  %.not.i21 = icmp eq i32 %54, 0
  br i1 %.not.i21, label %lean_dec.exit, label %59

59:                                               ; preds = %58
  tail call void @lean_dec_ref_cold(ptr noundef nonnull %1) #3
  br label %lean_dec.exit

lean_dec.exit:                                    ; preds = %59, %58, %56, %lean_inc.exit
  %60 = tail call ptr @l_Lean_mkAppB(ptr noundef %42, ptr noundef %2, ptr noundef %3) #3
  %61 = tail call ptr @lean_apply_2(ptr noundef %25, ptr noundef nonnull inttoptr (i64 1 to ptr), ptr noundef %60) #3
  ret ptr %61
}